; Function Attrs: mustprogress uwtable
define hidden void @_Z6MyLineN2cv3MatENS_6Point_IiEES2_(ptr noundef %0, i64 %1, i64 %2) local_unnamed_addr #4 personality ptr @__gxx_personality_v0 {
  %4 = alloca %"class.cv::_InputOutputArray", align 8
  %5 = alloca %"class.cv::Scalar_", align 8
  %6 = getelementptr inbounds i8, ptr %4, i64 8
  %7 = getelementptr inbounds i8, ptr %4, i64 16
  store i64 0, ptr %7, align 8
  store i32 50397184, ptr %4, align 8
  store ptr %0, ptr %6, align 8
  call void @llvm.memset.p0.i64(ptr noundef nonnull align 8 dereferenceable(32) %5, i8 0, i64 32, i1 false)
  call void @_ZN2cv4lineERKNS_17_InputOutputArrayENS_6Point_IiEES4_RKNS_7Scalar_IdEEiii(ptr noundef nonnull align 8 dereferenceable(24) %4, i64 %1, i64 %2, ptr noundef nonnull align 8 dereferenceable(32) %5, i32 noundef 2, i32 noundef 8, i32 noundef 0)
  ret void
}